; Function Attrs: mustprogress uwtable
define noundef zeroext i1 @_ZN11OpenImageIO6v3_1_07Strutil15string_is_floatENS0_17basic_string_viewIcSt11char_traitsIcEEE(ptr noundef captures(none) %0) local_unnamed_addr #6 personality ptr @__gxx_personality_v0 {
  %2 = alloca i64, align 8
  %3 = alloca %"class.OpenImageIO::v3_1_0::basic_string_view", align 8
  call void @llvm.lifetime.start.p0(i64 8, ptr nonnull %2) #16
  %4 = load ptr, ptr %0, align 8, !tbaa !67
  store ptr %4, ptr %3, align 8, !tbaa !67
  %5 = getelementptr inbounds nuw i8, ptr %3, i64 8
  %6 = getelementptr inbounds nuw i8, ptr %0, i64 8
  %7 = load i64, ptr %6, align 8, !tbaa !64
  store i64 %7, ptr %5, align 8, !tbaa !64
  %8 = call noundef float @_ZN11OpenImageIO6v3_1_07Strutil4stofENS0_17basic_string_viewIcSt11char_traitsIcEEEPm(ptr noundef nonnull %3, ptr noundef nonnull %2)
  %9 = load i64, ptr %2, align 8, !tbaa !86
  %.not = icmp eq i64 %9, 0
  br i1 %.not, label %_ZN11OpenImageIO6v3_1_07Strutil15skip_whitespaceERNS0_17basic_string_viewIcSt11char_traitsIcEEE.exit.thread, label %10

10:                                               ; preds = %1
  %11 = load i64, ptr %6, align 8, !tbaa !64
  %spec.select.i = call i64 @llvm.umin.i64(i64 %9, i64 %11)
  %12 = load ptr, ptr %0, align 8, !tbaa !67
  %13 = getelementptr inbounds nuw i8, ptr %12, i64 %spec.select.i
  store ptr %13, ptr %0, align 8, !tbaa !67
  %14 = sub i64 %11, %spec.select.i
  store i64 %14, ptr %6, align 8, !tbaa !64
  %.not4.i = icmp eq i64 %14, 0
  br i1 %.not4.i, label %_ZN11OpenImageIO6v3_1_07Strutil15skip_whitespaceERNS0_17basic_string_viewIcSt11char_traitsIcEEE.exit.thread, label %.lr.ph.i

.lr.ph.i:                                         ; preds = %10, %18
  %15 = phi i64 [ %20, %18 ], [ %14, %10 ]
  %16 = phi ptr [ %19, %18 ], [ %13, %10 ]
  %17 = load i8, ptr %16, align 1, !tbaa !3
  switch i8 %17, label %_ZN11OpenImageIO6v3_1_07Strutil15skip_whitespaceERNS0_17basic_string_viewIcSt11char_traitsIcEEE.exit.thread [
    i8 32, label %18
    i8 10, label %18
    i8 9, label %18
    i8 13, label %18
  ]

18:                                               ; preds = %.lr.ph.i, %.lr.ph.i, %.lr.ph.i, %.lr.ph.i
  %19 = getelementptr inbounds nuw i8, ptr %16, i64 1
  store ptr %19, ptr %0, align 8, !tbaa !67
  %20 = add i64 %15, -1
  store i64 %20, ptr %6, align 8, !tbaa !64
  %.not.i = icmp eq i64 %20, 0
  br i1 %.not.i, label %_ZN11OpenImageIO6v3_1_07Strutil15skip_whitespaceERNS0_17basic_string_viewIcSt11char_traitsIcEEE.exit.thread, label %.lr.ph.i, !llvm.loop !79

_ZN11OpenImageIO6v3_1_07Strutil15skip_whitespaceERNS0_17basic_string_viewIcSt11char_traitsIcEEE.exit.thread: ; preds = %18, %.lr.ph.i, %10, %1
  %21 = phi i1 [ false, %1 ], [ true, %10 ], [ false, %.lr.ph.i ], [ true, %18 ]
  call void @llvm.lifetime.end.p0(i64 8, ptr nonnull %2) #16
  ret i1 %21
}